target datalayout = "e-m:e-p270:32:32-p271:32:32-p272:64:64-i64:64-i128:128-f80:128-n8:16:32:64-S128"
target triple = "x86_64-pc-linux-gnu"

%struct.client = type { i64, i64, ptr, i8, i8, i8, i8, i32, ptr, ptr, ptr, ptr, ptr, i64, i64, i32, ptr, i32, i32, ptr, i64, ptr, ptr, ptr, ptr, ptr, i32, i32, i64, ptr, i64, ptr, i64, i64, i64, i32, ptr, i64, i64, i32, i32, i32, i32, i64, i64, ptr, i64, i64, i64, i64, i64, i64, i64, i64, [41 x i8], i32, ptr, i32, i32, i64, %struct.multiState, %struct.blockingState, i64, ptr, ptr, ptr, ptr, ptr, ptr, ptr, ptr, ptr, ptr, ptr, ptr, ptr, ptr, i64, ptr, i64, i32, ptr, ptr, ptr, i64, %struct.listNode, i64, i64, i32, i64, ptr }
%struct.multiState = type { ptr, i32, i32, i32, i64, i32 }
%struct.blockingState = type { i32, i64, i32, ptr, i32, i32, i64, ptr, ptr, i64 }
%struct.listNode = type { ptr, ptr, ptr }

@.str.1 = private unnamed_addr constant [13 x i8] c"networking.c\00", align 1
@.str.23 = private unnamed_addr constant [11 x i8] c"start >= 0\00", align 1
@.str.24 = private unnamed_addr constant [11 x i8] c"0123456789\00", align 1

; Function Attrs: nounwind uwtable
define dso_local void @addReplyDouble(ptr noundef %0, double noundef %1) #0 {
  %3 = alloca ptr, align 8
  %4 = alloca double, align 8
  %5 = alloca [131 x i8], align 16
  %6 = alloca i32, align 4
  %7 = alloca [5152 x i8], align 16
  %8 = alloca i32, align 4
  %9 = alloca i32, align 4
  %10 = alloca i32, align 4
  %11 = alloca i32, align 4
  %12 = alloca i32, align 4
  store ptr %0, ptr %3, align 8, !tbaa !24
  store double %1, ptr %4, align 8, !tbaa !195
  %13 = load ptr, ptr %3, align 8, !tbaa !24
  %14 = getelementptr inbounds nuw %struct.client, ptr %13, i32 0, i32 7
  %15 = load i32, ptr %14, align 4, !tbaa !74
  %16 = icmp eq i32 %15, 3
  br i1 %16, label %17, label %40

17:                                               ; preds = %2
  call void @llvm.lifetime.start.p0(i64 131, ptr %5) #16
  %18 = getelementptr inbounds [131 x i8], ptr %5, i64 0, i64 0
  store i8 44, ptr %18, align 16, !tbaa !16
  call void @llvm.lifetime.start.p0(i64 4, ptr %6) #16
  %19 = getelementptr inbounds [131 x i8], ptr %5, i64 0, i64 0
  %20 = getelementptr inbounds i8, ptr %19, i64 1
  %21 = load double, ptr %4, align 8, !tbaa !195
  %22 = call i32 @d2string(ptr noundef %20, i64 noundef 130, double noundef %21)
  store i32 %22, ptr %6, align 4, !tbaa !19
  %23 = load i32, ptr %6, align 4, !tbaa !19
  %24 = add nsw i32 %23, 1
  %25 = sext i32 %24 to i64
  %26 = getelementptr inbounds [131 x i8], ptr %5, i64 0, i64 %25
  store i8 13, ptr %26, align 1, !tbaa !16
  %27 = load i32, ptr %6, align 4, !tbaa !19
  %28 = add nsw i32 %27, 2
  %29 = sext i32 %28 to i64
  %30 = getelementptr inbounds [131 x i8], ptr %5, i64 0, i64 %29
  store i8 10, ptr %30, align 1, !tbaa !16
  %31 = load i32, ptr %6, align 4, !tbaa !19
  %32 = add nsw i32 %31, 3
  %33 = sext i32 %32 to i64
  %34 = getelementptr inbounds [131 x i8], ptr %5, i64 0, i64 %33
  store i8 0, ptr %34, align 1, !tbaa !16
  %35 = load ptr, ptr %3, align 8, !tbaa !24
  %36 = getelementptr inbounds [131 x i8], ptr %5, i64 0, i64 0
  %37 = load i32, ptr %6, align 4, !tbaa !19
  %38 = add nsw i32 %37, 3
  %39 = sext i32 %38 to i64
  call void @addReplyProto(ptr noundef %35, ptr noundef %36, i64 noundef %39)
  call void @llvm.lifetime.end.p0(i64 4, ptr %6) #16
  call void @llvm.lifetime.end.p0(i64 131, ptr %5) #16
  br label %117

40:                                               ; preds = %2
  call void @llvm.lifetime.start.p0(i64 5152, ptr %7) #16
  call void @llvm.lifetime.start.p0(i64 4, ptr %8) #16
  %41 = getelementptr inbounds [5152 x i8], ptr %7, i64 0, i64 0
  %42 = getelementptr inbounds i8, ptr %41, i64 7
  %43 = load double, ptr %4, align 8, !tbaa !195
  %44 = call i32 @d2string(ptr noundef %42, i64 noundef 5145, double noundef %43)
  store i32 %44, ptr %8, align 4, !tbaa !19
  call void @llvm.lifetime.start.p0(i64 4, ptr %9) #16
  %45 = load i32, ptr %8, align 4, !tbaa !19
  %46 = sext i32 %45 to i64
  %47 = call i32 @digits10(i64 noundef %46)
  store i32 %47, ptr %9, align 4, !tbaa !19
  call void @llvm.lifetime.start.p0(i64 4, ptr %10) #16
  %48 = load i32, ptr %9, align 4, !tbaa !19
  %49 = sub nsw i32 4, %48
  store i32 %49, ptr %10, align 4, !tbaa !19
  %50 = load i32, ptr %10, align 4, !tbaa !19
  %51 = icmp sge i32 %50, 0
  %52 = xor i1 %51, true
  %53 = xor i1 %52, true
  %54 = zext i1 %53 to i32
  %55 = sext i32 %54 to i64
  %56 = call i64 @llvm.expect.i64(i64 %55, i64 1)
  %57 = icmp ne i64 %56, 0
  br i1 %57, label %58, label %59

58:                                               ; preds = %40
  br label %61

59:                                               ; preds = %40
  call void @_serverAssert(ptr noundef @.str.23, ptr noundef @.str.1, i32 noundef 894)
  call void @abort() #17
  unreachable

60:                                               ; No predecessors!
  br label %61

61:                                               ; preds = %60, %58
  %62 = load i32, ptr %10, align 4, !tbaa !19
  %63 = sext i32 %62 to i64
  %64 = getelementptr inbounds [5152 x i8], ptr %7, i64 0, i64 %63
  store i8 36, ptr %64, align 1, !tbaa !16
  call void @llvm.lifetime.start.p0(i64 4, ptr %11) #16
  %65 = load i32, ptr %9, align 4, !tbaa !19
  store i32 %65, ptr %11, align 4, !tbaa !19
  call void @llvm.lifetime.start.p0(i64 4, ptr %12) #16
  %66 = load i32, ptr %8, align 4, !tbaa !19
  store i32 %66, ptr %12, align 4, !tbaa !19
  br label %67

67:                                               ; preds = %87, %61
  %68 = load i32, ptr %12, align 4, !tbaa !19
  %69 = icmp ne i32 %68, 0
  br i1 %69, label %70, label %73

70:                                               ; preds = %67
  %71 = load i32, ptr %11, align 4, !tbaa !19
  %72 = icmp sgt i32 %71, 0
  br label %73

73:                                               ; preds = %70, %67
  %74 = phi i1 [ false, %67 ], [ %72, %70 ]
  br i1 %74, label %76, label %75

75:                                               ; preds = %73
  call void @llvm.lifetime.end.p0(i64 4, ptr %12) #16
  call void @llvm.lifetime.end.p0(i64 4, ptr %11) #16
  br label %92

76:                                               ; preds = %73
  %77 = load i32, ptr %12, align 4, !tbaa !19
  %78 = srem i32 %77, 10
  %79 = sext i32 %78 to i64
  %80 = getelementptr inbounds [11 x i8], ptr @.str.24, i64 0, i64 %79
  %81 = load i8, ptr %80, align 1, !tbaa !16
  %82 = load i32, ptr %10, align 4, !tbaa !19
  %83 = load i32, ptr %11, align 4, !tbaa !19
  %84 = add nsw i32 %82, %83
  %85 = sext i32 %84 to i64
  %86 = getelementptr inbounds [5152 x i8], ptr %7, i64 0, i64 %85
  store i8 %81, ptr %86, align 1, !tbaa !16
  br label %87

87:                                               ; preds = %76
  %88 = load i32, ptr %11, align 4, !tbaa !19
  %89 = add nsw i32 %88, -1
  store i32 %89, ptr %11, align 4, !tbaa !19
  %90 = load i32, ptr %12, align 4, !tbaa !19
  %91 = sdiv i32 %90, 10
  store i32 %91, ptr %12, align 4, !tbaa !19
  br label %67, !llvm.loop !196

92:                                               ; preds = %75
  %93 = getelementptr inbounds [5152 x i8], ptr %7, i64 0, i64 5
  store i8 13, ptr %93, align 1, !tbaa !16
  %94 = getelementptr inbounds [5152 x i8], ptr %7, i64 0, i64 6
  store i8 10, ptr %94, align 2, !tbaa !16
  %95 = load i32, ptr %8, align 4, !tbaa !19
  %96 = add nsw i32 %95, 7
  %97 = sext i32 %96 to i64
  %98 = getelementptr inbounds [5152 x i8], ptr %7, i64 0, i64 %97
  store i8 13, ptr %98, align 1, !tbaa !16
  %99 = load i32, ptr %8, align 4, !tbaa !19
  %100 = add nsw i32 %99, 8
  %101 = sext i32 %100 to i64
  %102 = getelementptr inbounds [5152 x i8], ptr %7, i64 0, i64 %101
  store i8 10, ptr %102, align 1, !tbaa !16
  %103 = load i32, ptr %8, align 4, !tbaa !19
  %104 = add nsw i32 %103, 9
  %105 = sext i32 %104 to i64
  %106 = getelementptr inbounds [5152 x i8], ptr %7, i64 0, i64 %105
  store i8 0, ptr %106, align 1, !tbaa !16
  %107 = load ptr, ptr %3, align 8, !tbaa !24
  %108 = getelementptr inbounds [5152 x i8], ptr %7, i64 0, i64 0
  %109 = load i32, ptr %10, align 4, !tbaa !19
  %110 = sext i32 %109 to i64
  %111 = getelementptr inbounds i8, ptr %108, i64 %110
  %112 = load i32, ptr %8, align 4, !tbaa !19
  %113 = add nsw i32 %112, 9
  %114 = load i32, ptr %10, align 4, !tbaa !19
  %115 = sub nsw i32 %113, %114
  %116 = sext i32 %115 to i64
  call void @addReplyProto(ptr noundef %107, ptr noundef %111, i64 noundef %116)
  call void @llvm.lifetime.end.p0(i64 4, ptr %10) #16
  call void @llvm.lifetime.end.p0(i64 4, ptr %9) #16
  call void @llvm.lifetime.end.p0(i64 4, ptr %8) #16
  call void @llvm.lifetime.end.p0(i64 5152, ptr %7) #16
  br label %117

117:                                              ; preds = %92, %17
  ret void
}