; Function Attrs: nounwind uwtable
define dso_local void @addReplyDouble(ptr noundef %0, double noundef %1) local_unnamed_addr #0 {
  %3 = alloca [131 x i8], align 16
  %4 = alloca [5152 x i8], align 16
  %5 = getelementptr inbounds nuw i8, ptr %0, i64 28
  %6 = load i32, ptr %5, align 4, !tbaa !74
  %7 = icmp eq i32 %6, 3
  br i1 %7, label %8, label %20

8:                                                ; preds = %2
  call void @llvm.lifetime.start.p0(i64 131, ptr nonnull %3) #26
  store i8 44, ptr %3, align 16, !tbaa !12
  %9 = getelementptr inbounds nuw i8, ptr %3, i64 1
  %10 = call i32 @d2string(ptr noundef nonnull %9, i64 noundef 130, double noundef %1) #26
  %11 = add nsw i32 %10, 1
  %12 = sext i32 %11 to i64
  %13 = getelementptr inbounds [131 x i8], ptr %3, i64 0, i64 %12
  store i8 13, ptr %13, align 1, !tbaa !12
  %14 = add nsw i32 %10, 2
  %15 = sext i32 %14 to i64
  %16 = getelementptr inbounds [131 x i8], ptr %3, i64 0, i64 %15
  store i8 10, ptr %16, align 1, !tbaa !12
  %17 = add nsw i32 %10, 3
  %18 = sext i32 %17 to i64
  %19 = getelementptr inbounds [131 x i8], ptr %3, i64 0, i64 %18
  store i8 0, ptr %19, align 1, !tbaa !12
  call void @addReplyProto(ptr noundef nonnull %0, ptr noundef nonnull %3, i64 noundef %18)
  call void @llvm.lifetime.end.p0(i64 131, ptr nonnull %3) #26
  br label %59

20:                                               ; preds = %2
  call void @llvm.lifetime.start.p0(i64 5152, ptr nonnull %4) #26
  %21 = getelementptr inbounds nuw i8, ptr %4, i64 7
  %22 = call i32 @d2string(ptr noundef nonnull %21, i64 noundef 5145, double noundef %1) #26
  %23 = sext i32 %22 to i64
  %24 = call i32 @digits10(i64 noundef %23) #26
  %25 = sub nsw i32 4, %24
  %26 = icmp slt i32 %24, 5
  br i1 %26, label %28, label %27, !prof !5

27:                                               ; preds = %20
  call void @_serverAssert(ptr noundef nonnull @.str.23, ptr noundef nonnull @.str.1, i32 noundef 894) #26
  call void @abort() #27
  unreachable

28:                                               ; preds = %20
  %29 = zext i32 %25 to i64
  %30 = getelementptr inbounds nuw [5152 x i8], ptr %4, i64 0, i64 %29
  store i8 36, ptr %30, align 1, !tbaa !12
  %31 = icmp ne i32 %22, 0
  %32 = icmp sgt i32 %24, 0
  %33 = and i1 %31, %32
  br i1 %33, label %.lr.ph.preheader, label %._crit_edge

.lr.ph.preheader:                                 ; preds = %28
  %34 = zext nneg i32 %24 to i64
  br label %.lr.ph

._crit_edge:                                      ; preds = %.lr.ph, %28
  %35 = getelementptr inbounds nuw i8, ptr %4, i64 5
  store i8 13, ptr %35, align 1, !tbaa !12
  %36 = getelementptr inbounds nuw i8, ptr %4, i64 6
  store i8 10, ptr %36, align 2, !tbaa !12
  %37 = add nsw i32 %22, 7
  %38 = sext i32 %37 to i64
  %39 = getelementptr inbounds [5152 x i8], ptr %4, i64 0, i64 %38
  store i8 13, ptr %39, align 1, !tbaa !12
  %40 = add nsw i32 %22, 8
  %41 = sext i32 %40 to i64
  %42 = getelementptr inbounds [5152 x i8], ptr %4, i64 0, i64 %41
  store i8 10, ptr %42, align 1, !tbaa !12
  %43 = add nsw i32 %22, 9
  %44 = sext i32 %43 to i64
  %45 = getelementptr inbounds [5152 x i8], ptr %4, i64 0, i64 %44
  store i8 0, ptr %45, align 1, !tbaa !12
  %46 = sub nsw i32 %43, %25
  %47 = sext i32 %46 to i64
  call void @addReplyProto(ptr noundef %0, ptr noundef nonnull %30, i64 noundef %47)
  call void @llvm.lifetime.end.p0(i64 5152, ptr nonnull %4) #26
  br label %59

.lr.ph:                                           ; preds = %.lr.ph.preheader, %.lr.ph
  %indvars.iv = phi i64 [ %34, %.lr.ph.preheader ], [ %indvars.iv.next, %.lr.ph ]
  %.030 = phi i32 [ %22, %.lr.ph.preheader ], [ %54, %.lr.ph ]
  %48 = srem i32 %.030, 10
  %49 = sext i32 %48 to i64
  %50 = getelementptr inbounds [11 x i8], ptr @.str.24, i64 0, i64 %49
  %51 = load i8, ptr %50, align 1, !tbaa !12
  %52 = add nuw nsw i64 %indvars.iv, %29
  %53 = getelementptr inbounds nuw [5152 x i8], ptr %4, i64 0, i64 %52
  store i8 %51, ptr %53, align 1, !tbaa !12
  %indvars.iv.next = add nsw i64 %indvars.iv, -1
  %54 = sdiv i32 %.030, 10
  %55 = add i32 %.030, -10
  %56 = icmp ult i32 %55, -19
  %57 = icmp samesign ugt i64 %indvars.iv, 1
  %58 = and i1 %56, %57
  br i1 %58, label %.lr.ph, label %._crit_edge, !llvm.loop !148

59:                                               ; preds = %._crit_edge, %8
  ret void
}